target datalayout = "e-m:e-p270:32:32-p271:32:32-p272:64:64-i64:64-i128:128-f80:128-n8:16:32:64-S128"
target triple = "x86_64-pc-linux-gnu"

%struct.__va_list_tag = type { i32, i32, ptr, ptr }

; Function Attrs: mustprogress uwtable
define i32 @utrace_format_77(ptr noundef %0, i32 noundef %1, i32 noundef %2, ptr noundef %3, ...) #0 {
  %5 = alloca ptr, align 8
  %6 = alloca i32, align 4
  %7 = alloca i32, align 4
  %8 = alloca ptr, align 8
  %9 = alloca i32, align 4
  %10 = alloca [1 x %struct.__va_list_tag], align 16
  store ptr %0, ptr %5, align 8, !tbaa !9
  store i32 %1, ptr %6, align 4, !tbaa !3
  store i32 %2, ptr %7, align 4, !tbaa !3
  store ptr %3, ptr %8, align 8, !tbaa !9
  call void @llvm.lifetime.start.p0(i64 4, ptr %9) #5
  call void @llvm.lifetime.start.p0(i64 24, ptr %10) #5
  %11 = getelementptr inbounds [1 x %struct.__va_list_tag], ptr %10, i64 0, i64 0
  call void @llvm.va_start.p0(ptr %11)
  %12 = load ptr, ptr %5, align 8, !tbaa !9
  %13 = load i32, ptr %6, align 4, !tbaa !3
  %14 = load i32, ptr %7, align 4, !tbaa !3
  %15 = load ptr, ptr %8, align 8, !tbaa !9
  %16 = getelementptr inbounds [1 x %struct.__va_list_tag], ptr %10, i64 0, i64 0
  %17 = call i32 @utrace_vformat_77(ptr noundef %12, i32 noundef %13, i32 noundef %14, ptr noundef %15, ptr noundef %16)
  store i32 %17, ptr %9, align 4, !tbaa !3
  %18 = getelementptr inbounds [1 x %struct.__va_list_tag], ptr %10, i64 0, i64 0
  call void @llvm.va_end.p0(ptr %18)
  %19 = load i32, ptr %9, align 4, !tbaa !3
  call void @llvm.lifetime.end.p0(i64 24, ptr %10) #5
  call void @llvm.lifetime.end.p0(i64 4, ptr %9) #5
  ret i32 %19
}