; Function Attrs: mustprogress nofree norecurse nosync nounwind uwtable
define range(i32 -2147483647, -2147483648) i32 @utrace_format_77(ptr noundef %0, i32 noundef %1, i32 noundef %2, ptr noundef readonly captures(none) %3, ...) local_unnamed_addr #6 {
  %5 = alloca [1 x %struct.__va_list_tag], align 16
  call void @llvm.lifetime.start.p0(i64 24, ptr nonnull %5) #12
  call void @llvm.va_start.p0(ptr nonnull %5)
  %6 = call i32 @utrace_vformat_77(ptr noundef %0, i32 noundef %1, i32 noundef %2, ptr noundef %3, ptr noundef nonnull %5)
  call void @llvm.va_end.p0(ptr nonnull %5)
  call void @llvm.lifetime.end.p0(i64 24, ptr nonnull %5) #12
  ret i32 %6
}